; Function Attrs: mustprogress nofree norecurse nosync nounwind willreturn memory(read, inaccessiblemem: none) uwtable
define hidden noundef zeroext i1 @_ZNK2lp10int_solver7is_baseEj(ptr noundef nonnull readonly align 8 captures(none) dereferenceable(32) %0, i32 noundef %1) local_unnamed_addr #9 align 2 {
  %3 = getelementptr inbounds nuw i8, ptr %0, i64 8
  %4 = load ptr, ptr %3, align 8, !tbaa !202
  %5 = getelementptr inbounds nuw i8, ptr %4, i64 424
  %6 = zext i32 %1 to i64
  %7 = load ptr, ptr %5, align 8, !tbaa !282
  %8 = getelementptr inbounds nuw i32, ptr %7, i64 %6
  %9 = load i32, ptr %8, align 4, !tbaa !31
  %10 = icmp sgt i32 %9, -1
  ret i1 %10
}